; Function Attrs: mustprogress uwtable
define { i64, i64 } @_ZN3re28Compiler4CopyENS_4FragE(ptr nocapture noundef nonnull writeonly align 8 dereferenceable(212) %this, i64 %arg.coerce0, i64 %arg.coerce1) unnamed_addr #0 align 2 personality ptr @__gxx_personality_v0 {
entry:
  %retval.i = alloca %"struct.re2::Frag", align 8
  %ref.tmp = alloca %class.LogMessage, align 8
  %failed_ = getelementptr inbounds i8, ptr %this, i64 104
  store i8 1, ptr %failed_, align 8
  store i8 0, ptr %ref.tmp, align 8
  %str_.i = getelementptr inbounds i8, ptr %ref.tmp, i64 8
  call void @_ZNSt7__cxx1119basic_ostringstreamIcSt11char_traitsIcESaIcEEC1Ev(ptr noundef nonnull align 8 dereferenceable(112) %str_.i)
  %call3.i = invoke noundef nonnull align 8 dereferenceable(8) ptr @_ZStlsISt11char_traitsIcEERSt13basic_ostreamIcT_ES5_PKc(ptr noundef nonnull align 8 dereferenceable(8) %str_.i, ptr noundef nonnull @.str)
          to label %invoke.cont2.i unwind label %lpad.i

invoke.cont2.i:                                   ; preds = %entry
  %call5.i = invoke noundef nonnull align 8 dereferenceable(8) ptr @_ZStlsISt11char_traitsIcEERSt13basic_ostreamIcT_ES5_PKc(ptr noundef nonnull align 8 dereferenceable(8) %call3.i, ptr noundef nonnull @.str.6)
          to label %invoke.cont4.i unwind label %lpad.i

invoke.cont4.i:                                   ; preds = %invoke.cont2.i
  %call7.i = invoke noundef nonnull align 8 dereferenceable(8) ptr @_ZNSolsEi(ptr noundef nonnull align 8 dereferenceable(8) %call5.i, i32 noundef 794)
          to label %invoke.cont6.i unwind label %lpad.i

invoke.cont6.i:                                   ; preds = %invoke.cont4.i
  %call9.i = invoke noundef nonnull align 8 dereferenceable(8) ptr @_ZStlsISt11char_traitsIcEERSt13basic_ostreamIcT_ES5_PKc(ptr noundef nonnull align 8 dereferenceable(8) %call7.i, ptr noundef nonnull @.str.7)
          to label %_ZN10LogMessageC2EPKci.exit unwind label %lpad.i

common.resume:                                    ; preds = %lpad, %lpad.i
  %common.resume.op = phi { ptr, i32 } [ %0, %lpad.i ], [ %1, %lpad ]
  resume { ptr, i32 } %common.resume.op

lpad.i:                                           ; preds = %invoke.cont6.i, %invoke.cont4.i, %invoke.cont2.i, %entry
  %0 = landingpad { ptr, i32 }
          cleanup
  call void @_ZNSt7__cxx1119basic_ostringstreamIcSt11char_traitsIcESaIcEED1Ev(ptr noundef nonnull align 8 dereferenceable(112) %str_.i) #25
  br label %common.resume

_ZN10LogMessageC2EPKci.exit:                      ; preds = %invoke.cont6.i
  %call3 = invoke noundef nonnull align 8 dereferenceable(8) ptr @_ZStlsISt11char_traitsIcEERSt13basic_ostreamIcT_ES5_PKc(ptr noundef nonnull align 8 dereferenceable(8) %str_.i, ptr noundef nonnull @.str.2)
          to label %invoke.cont2 unwind label %lpad

invoke.cont2:                                     ; preds = %_ZN10LogMessageC2EPKci.exit
  call void @_ZN10LogMessageD2Ev(ptr noundef nonnull align 8 dereferenceable(384) %ref.tmp) #25
  call void @llvm.lifetime.start.p0(i64 16, ptr nonnull %retval.i)
  store i32 0, ptr %retval.i, align 8
  %retval.i.4.retval.i.4.retval.i.4.retval.4.retval.4.end.i.sroa_idx = getelementptr inbounds i8, ptr %retval.i, i64 4
  store i64 0, ptr %retval.i.4.retval.i.4.retval.i.4.retval.4.retval.4.end.i.sroa_idx, align 4
  %retval.i.12.retval.i.12.retval.i.12.retval.12.retval.12.nullable.i.sroa_idx = getelementptr inbounds i8, ptr %retval.i, i64 12
  store i8 0, ptr %retval.i.12.retval.i.12.retval.i.12.retval.12.retval.12.nullable.i.sroa_idx, align 4
  %retval.i.0.retval.i.0.retval.i.0.retval.0.retval.0..fca.0.load.i = load i64, ptr %retval.i, align 8
  %.fca.0.insert.i = insertvalue { i64, i64 } poison, i64 %retval.i.0.retval.i.0.retval.i.0.retval.0.retval.0..fca.0.load.i, 0
  %retval.i.8.retval.i.8.retval.i.8.retval.8.retval.8..fca.1.gep.sroa_idx = getelementptr inbounds i8, ptr %retval.i, i64 8
  %retval.i.8.retval.i.8.retval.i.8.retval.8.retval.8..fca.1.load.i = load i64, ptr %retval.i.8.retval.i.8.retval.i.8.retval.8.retval.8..fca.1.gep.sroa_idx, align 8
  %.fca.1.insert.i = insertvalue { i64, i64 } %.fca.0.insert.i, i64 %retval.i.8.retval.i.8.retval.i.8.retval.8.retval.8..fca.1.load.i, 1
  call void @llvm.lifetime.end.p0(i64 16, ptr nonnull %retval.i)
  ret { i64, i64 } %.fca.1.insert.i

lpad:                                             ; preds = %_ZN10LogMessageC2EPKci.exit
  %1 = landingpad { ptr, i32 }
          cleanup
  call void @_ZN10LogMessageD2Ev(ptr noundef nonnull align 8 dereferenceable(384) %ref.tmp) #25
  br label %common.resume
}